# SymbolsHelper-Confirmed: 5.1.1+git20130920+5b12abb862-0ubuntu1 armhf
libqgsttools_p.so.1 libqgsttools-p1-touch #MINVER#
 _ZN10QGstAppSrc11onDataReadyEv@Base 5.0.2
 _ZN10QGstAppSrc11qt_metacallEN11QMetaObject4CallEiPPv@Base 5.0.2
 _ZN10QGstAppSrc11qt_metacastEPKc@Base 5.0.2
 _ZN10QGstAppSrc12on_need_dataEP10_GstAppSrcjPv@Base 5.0.2
 (subst)_ZN10QGstAppSrc12on_seek_dataEP10_GstAppSrc{uint64_t}Pv@Base 5.0.2
 _ZN10QGstAppSrc14destroy_notifyEPv@Base 5.0.2
 _ZN10QGstAppSrc14on_enough_dataEP10_GstAppSrcPv@Base 5.0.2
 _ZN10QGstAppSrc15streamDestroyedEv@Base 5.0.2
 _ZN10QGstAppSrc16pushDataToAppSrcEv@Base 5.0.2
 _ZN10QGstAppSrc16staticMetaObjectE@Base 5.0.2
 _ZN10QGstAppSrc5setupEP11_GstElement@Base 5.0.2
 _ZN10QGstAppSrc6doSeekEx@Base 5.0.2
 _ZN10QGstAppSrc7elementEv@Base 5.0.2
 _ZN10QGstAppSrc7sendEOSEv@Base 5.0.2
 _ZN10QGstAppSrc9setStreamEP9QIODevice@Base 5.0.2
 _ZN10QGstAppSrcC1EP7QObject@Base 5.0.2
 _ZN10QGstAppSrcC2EP7QObject@Base 5.0.2
 _ZN10QGstAppSrcD0Ev@Base 5.0.2
 _ZN10QGstAppSrcD1Ev@Base 5.0.2
 _ZN10QGstAppSrcD2Ev@Base 5.0.2
 _ZN11QMetaTypeIdI17QGstreamerMessageE14qt_metatype_idEv@Base 5.0.2
 (subst)_ZN14QGstCodecsInfo20supportedElementCapsE{uint64_t}7GstRank15GstPadDirection@Base 5.0.2
 _ZN14QGstCodecsInfoC1ENS_11ElementTypeE@Base 5.0.2
 _ZN14QGstCodecsInfoC2ENS_11ElementTypeE@Base 5.0.2
 _ZN15QGstVideoBuffer3mapEN20QAbstractVideoBuffer7MapModeEPiS2_@Base 5.0.2
 _ZN15QGstVideoBuffer5unmapEv@Base 5.0.2
 _ZN15QGstVideoBufferC1EP10_GstBufferi@Base 5.0.2
 _ZN15QGstVideoBufferC1EP10_GstBufferiN20QAbstractVideoBuffer10HandleTypeERK8QVariant@Base 5.0.2
 _ZN15QGstVideoBufferC2EP10_GstBufferi@Base 5.0.2
 _ZN15QGstVideoBufferC2EP10_GstBufferiN20QAbstractVideoBuffer10HandleTypeERK8QVariant@Base 5.0.2
 _ZN15QGstVideoBufferD0Ev@Base 5.0.2
 _ZN15QGstVideoBufferD1Ev@Base 5.0.2
 _ZN15QGstVideoBufferD2Ev@Base 5.0.2
 _ZN17QGstreamerMessageC1EP11_GstMessage@Base 5.0.2
 _ZN17QGstreamerMessageC1ERKS_@Base 5.0.2
 _ZN17QGstreamerMessageC1Ev@Base 5.0.2
 _ZN17QGstreamerMessageC2EP11_GstMessage@Base 5.0.2
 _ZN17QGstreamerMessageC2ERKS_@Base 5.0.2
 _ZN17QGstreamerMessageC2Ev@Base 5.0.2
 _ZN17QGstreamerMessageD1Ev@Base 5.0.2
 _ZN17QGstreamerMessageD2Ev@Base 5.0.2
 _ZN17QGstreamerMessageaSERKS_@Base 5.0.2
 (optional=templinst)_ZN17QtMetaTypePrivate23QMetaTypeFunctionHelperI17QGstreamerMessageLb1EE6CreateEPKv@Base 5.0.2
 (optional=templinst)_ZN17QtMetaTypePrivate23QMetaTypeFunctionHelperI17QGstreamerMessageLb1EE6DeleteEPv@Base 5.0.2
 (optional=templinst)_ZN17QtMetaTypePrivate23QMetaTypeFunctionHelperI17QGstreamerMessageLb1EE8DestructEPv@Base 5.0.2
 (optional=templinst)_ZN17QtMetaTypePrivate23QMetaTypeFunctionHelperI17QGstreamerMessageLb1EE9ConstructEPvPKv@Base 5.0.2
 _ZN19QGstreamerBusHelper11qt_metacallEN11QMetaObject4CallEiPPv@Base 5.0.2
 _ZN19QGstreamerBusHelper11qt_metacastEPKc@Base 5.0.2
 _ZN19QGstreamerBusHelper16staticMetaObjectE@Base 5.0.2
 _ZN19QGstreamerBusHelper19removeMessageFilterEP7QObject@Base 5.0.2
 _ZN19QGstreamerBusHelper20installMessageFilterEP7QObject@Base 5.0.2
 _ZN19QGstreamerBusHelper7messageERK17QGstreamerMessage@Base 5.0.2
 _ZN19QGstreamerBusHelperC1EP7_GstBusP7QObject@Base 5.0.2
 _ZN19QGstreamerBusHelperC2EP7_GstBusP7QObject@Base 5.0.2
 _ZN19QGstreamerBusHelperD0Ev@Base 5.0.2
 _ZN19QGstreamerBusHelperD1Ev@Base 5.0.2
 _ZN19QGstreamerBusHelperD2Ev@Base 5.0.2
 (optional=templinst)_ZN20QGlobalStaticDeleterI18QMediaPluginLoaderED1Ev@Base 5.1.1+git20130918+97081f9478-1ubuntu1phablet1
 (optional=templinst)_ZN20QGlobalStaticDeleterI18QMediaPluginLoaderED2Ev@Base 5.1.1+git20130918+97081f9478-1ubuntu1phablet1
 _ZN20QGstBufferPoolPlugin11qt_metacallEN11QMetaObject4CallEiPPv@Base 5.0.2
 _ZN20QGstBufferPoolPlugin11qt_metacastEPKc@Base 5.0.2
 _ZN20QGstBufferPoolPlugin16staticMetaObjectE@Base 5.0.2
 _ZN20QGstBufferPoolPluginC1EP7QObject@Base 5.0.2
 _ZN20QGstBufferPoolPluginC2EP7QObject@Base 5.0.2
 _ZN20QGstBufferPoolPluginD0Ev@Base 5.0.2
 _ZN20QGstBufferPoolPluginD1Ev@Base 5.0.2
 _ZN20QGstBufferPoolPluginD2Ev@Base 5.0.2
 _ZN20QVideoSurfaceGstSink10class_initEPvS0_@Base 5.0.2
 _ZN20QVideoSurfaceGstSink10createSinkEP21QAbstractVideoSurface@Base 5.0.2
 (subst)_ZN20QVideoSurfaceGstSink12buffer_allocEP12_GstBaseSink{uint64_t}jP8_GstCapsPP10_GstBuffer@Base 5.0.2
 _ZN20QVideoSurfaceGstSink12change_stateEP11_GstElement14GstStateChange@Base 5.0.2
 _ZN20QVideoSurfaceGstSink13formatForCapsEP8_GstCapsPiN20QAbstractVideoBuffer10HandleTypeE@Base 5.0.2
 _ZN20QVideoSurfaceGstSink13instance_initEP14_GTypeInstancePv@Base 5.0.2
 _ZN20QVideoSurfaceGstSink18setFrameTimeStampsEP11QVideoFrameP10_GstBuffer@Base 5.0.2
 _ZN20QVideoSurfaceGstSink23handleShowPrerollChangeEP8_GObjectP11_GParamSpecPv@Base 5.0.2
 _ZN20QVideoSurfaceGstSink4stopEP12_GstBaseSink@Base 5.0.2
 _ZN20QVideoSurfaceGstSink5eventEP12_GstBaseSinkP9_GstEvent@Base 5.0.2
 _ZN20QVideoSurfaceGstSink5startEP12_GstBaseSink@Base 5.0.2
 _ZN20QVideoSurfaceGstSink6renderEP12_GstBaseSinkP10_GstBuffer@Base 5.0.2
 _ZN20QVideoSurfaceGstSink6unlockEP12_GstBaseSink@Base 5.0.2
 _ZN20QVideoSurfaceGstSink7prerollEP12_GstBaseSinkP10_GstBuffer@Base 5.0.2
 _ZN20QVideoSurfaceGstSink8finalizeEP8_GObject@Base 5.0.2
#MISSING: 5.1.1+git20130918+97081f9478-1ubuntu1phablet1# _ZN20QVideoSurfaceGstSink8get_capsEP12_GstBaseSink@Base 5.0.2
 _ZN20QVideoSurfaceGstSink8get_capsEP12_GstBaseSinkP8_GstCaps@Base 5.1.1+git20130918+97081f9478-1ubuntu1phablet1
 _ZN20QVideoSurfaceGstSink8get_typeEv@Base 5.0.2
 _ZN20QVideoSurfaceGstSink8set_capsEP12_GstBaseSinkP8_GstCaps@Base 5.0.2
 _ZN20QVideoSurfaceGstSink9base_initEPv@Base 5.0.2
 _ZN23QGstBufferPoolInterfaceD0Ev@Base 5.0.2
 _ZN23QGstBufferPoolInterfaceD1Ev@Base 5.0.2
 _ZN23QGstBufferPoolInterfaceD2Ev@Base 5.0.2
 _ZN23QGstreamerVideoRenderer10setSurfaceEP21QAbstractVideoSurface@Base 5.0.2
 _ZN23QGstreamerVideoRenderer11qt_metacallEN11QMetaObject4CallEiPPv@Base 5.0.2
 _ZN23QGstreamerVideoRenderer11qt_metacastEPKc@Base 5.0.2
 _ZN23QGstreamerVideoRenderer11sinkChangedEv@Base 5.0.2
 _ZN23QGstreamerVideoRenderer12readyChangedEb@Base 5.0.2
 _ZN23QGstreamerVideoRenderer12stopRendererEv@Base 5.0.2
 _ZN23QGstreamerVideoRenderer16staticMetaObjectE@Base 5.0.2
 _ZN23QGstreamerVideoRenderer18handleFormatChangeEv@Base 5.0.2
 _ZN23QGstreamerVideoRenderer9videoSinkEv@Base 5.0.2
 _ZN23QGstreamerVideoRendererC1EP7QObject@Base 5.0.2
 _ZN23QGstreamerVideoRendererC2EP7QObject@Base 5.0.2
 _ZN23QGstreamerVideoRendererD0Ev@Base 5.0.2
 _ZN23QGstreamerVideoRendererD1Ev@Base 5.0.2
 _ZN23QGstreamerVideoRendererD2Ev@Base 5.0.2
 _ZN24QVideoSurfaceGstDelegate10queuedStopEv@Base 5.0.2
 _ZN24QVideoSurfaceGstDelegate11qt_metacallEN11QMetaObject4CallEiPPv@Base 5.0.2
 _ZN24QVideoSurfaceGstDelegate11qt_metacastEPKc@Base 5.0.2
 _ZN24QVideoSurfaceGstDelegate11queuedStartEv@Base 5.0.2
 _ZN24QVideoSurfaceGstDelegate12queuedRenderEv@Base 5.0.2
 _ZN24QVideoSurfaceGstDelegate16clearPoolBuffersEv@Base 5.0.2
 _ZN24QVideoSurfaceGstDelegate16staticMetaObjectE@Base 5.0.2
 _ZN24QVideoSurfaceGstDelegate22setLastPrerolledBufferEP10_GstBuffer@Base 5.0.2
 _ZN24QVideoSurfaceGstDelegate22updateSupportedFormatsEv@Base 5.0.2
 _ZN24QVideoSurfaceGstDelegate4stopEv@Base 5.0.2
 _ZN24QVideoSurfaceGstDelegate5startERK19QVideoSurfaceFormati@Base 5.0.2
 _ZN24QVideoSurfaceGstDelegate6renderEP10_GstBuffer@Base 5.0.2
 _ZN24QVideoSurfaceGstDelegate8isActiveEv@Base 5.0.2
 _ZN24QVideoSurfaceGstDelegateC1EP21QAbstractVideoSurface@Base 5.0.2
 _ZN24QVideoSurfaceGstDelegateC2EP21QAbstractVideoSurface@Base 5.0.2
 _ZN24QVideoSurfaceGstDelegateD0Ev@Base 5.0.2
 _ZN24QVideoSurfaceGstDelegateD1Ev@Base 5.0.2
 _ZN24QVideoSurfaceGstDelegateD2Ev@Base 5.0.2
 _ZN26QGstreamerBusHelperPrivate11busCallbackEP7_GstBusP11_GstMessagePv@Base 5.0.2
 _ZN26QGstreamerBusHelperPrivate11qt_metacallEN11QMetaObject4CallEiPPv@Base 5.0.2
 _ZN26QGstreamerBusHelperPrivate11qt_metacastEPKc@Base 5.0.2
 _ZN26QGstreamerBusHelperPrivate16staticMetaObjectE@Base 5.0.2
 _ZN26QGstreamerBusHelperPrivateD0Ev@Base 5.0.2
 _ZN26QGstreamerBusHelperPrivateD1Ev@Base 5.0.2
 _ZN26QGstreamerBusHelperPrivateD2Ev@Base 5.0.2
 (arch=armhf)_ZN26QGstreamerMirTextureBuffer3mapEN20QAbstractVideoBuffer7MapModeEPiS2_@Base 5.1.1+git20130918+97081f9478-1ubuntu1phablet1
 (arch=armhf)_ZN26QGstreamerMirTextureBuffer5unmapEv@Base 5.1.1+git20130918+97081f9478-1ubuntu1phablet1
 (arch=armhf)_ZN26QGstreamerMirTextureBufferD0Ev@Base 5.1.1+git20130918+97081f9478-1ubuntu1phablet1
 (arch=armhf)_ZN26QGstreamerMirTextureBufferD1Ev@Base 5.1.1+git20130918+97081f9478-1ubuntu1phablet1
 (arch=armhf)_ZN26QGstreamerMirTextureBufferD2Ev@Base 5.1.1+git20130918+97081f9478-1ubuntu1phablet1
 _ZN27QGstreamerAudioProbeControl11qt_metacallEN11QMetaObject4CallEiPPv@Base 5.0.2
 _ZN27QGstreamerAudioProbeControl11qt_metacastEPKc@Base 5.0.2
#MISSING: 5.1.1+git20130918+97081f9478-1ubuntu1phablet1# _ZN27QGstreamerAudioProbeControl12bufferProbedEP10_GstBuffer@Base 5.0.2
 _ZN27QGstreamerAudioProbeControl12bufferProbedEP10_GstBufferP8_GstCaps@Base 5.1.1+git20130918+97081f9478-1ubuntu1phablet1
 _ZN27QGstreamerAudioProbeControl12bufferProbedEv@Base 5.0.2
 _ZN27QGstreamerAudioProbeControl16staticMetaObjectE@Base 5.0.2
 _ZN27QGstreamerAudioProbeControlC1EP7QObject@Base 5.0.2
 _ZN27QGstreamerAudioProbeControlC2EP7QObject@Base 5.0.2
 _ZN27QGstreamerAudioProbeControlD0Ev@Base 5.0.2
 _ZN27QGstreamerAudioProbeControlD1Ev@Base 5.0.2
 _ZN27QGstreamerAudioProbeControlD2Ev@Base 5.0.2
 _ZN27QGstreamerVideoProbeControl11frameProbedEv@Base 5.0.2
 _ZN27QGstreamerVideoProbeControl11qt_metacallEN11QMetaObject4CallEiPPv@Base 5.0.2
 _ZN27QGstreamerVideoProbeControl11qt_metacastEPKc@Base 5.0.2
#MISSING: 5.1.1+git20130918+97081f9478-1ubuntu1phablet1# _ZN27QGstreamerVideoProbeControl12bufferProbedEP10_GstBuffer@Base 5.0.2
 _ZN27QGstreamerVideoProbeControl12bufferProbedEP10_GstBufferP8_GstCaps@Base 5.1.1+git20130918+97081f9478-1ubuntu1phablet1
 _ZN27QGstreamerVideoProbeControl12stopFlushingEv@Base 5.0.2
 _ZN27QGstreamerVideoProbeControl13startFlushingEv@Base 5.0.2
 _ZN27QGstreamerVideoProbeControl16staticMetaObjectE@Base 5.0.2
 _ZN27QGstreamerVideoProbeControlC1EP7QObject@Base 5.0.2
 _ZN27QGstreamerVideoProbeControlC2EP7QObject@Base 5.0.2
 _ZN27QGstreamerVideoProbeControlD0Ev@Base 5.0.2
 _ZN27QGstreamerVideoProbeControlD1Ev@Base 5.0.2
 _ZN27QGstreamerVideoProbeControlD2Ev@Base 5.0.2
 _ZN28QGstreamerAudioInputSelector11qt_metacallEN11QMetaObject4CallEiPPv@Base 5.0.2
 _ZN28QGstreamerAudioInputSelector11qt_metacastEPKc@Base 5.0.2
 _ZN28QGstreamerAudioInputSelector14setActiveInputERK7QString@Base 5.0.2
 _ZN28QGstreamerAudioInputSelector16staticMetaObjectE@Base 5.0.2
 _ZN28QGstreamerAudioInputSelector16updateOssDevicesEv@Base 5.0.2
 _ZN28QGstreamerAudioInputSelector17updateAlsaDevicesEv@Base 5.0.2
 _ZN28QGstreamerAudioInputSelector18updatePulseDevicesEv@Base 5.0.2
 _ZN28QGstreamerAudioInputSelector6updateEv@Base 5.0.2
 _ZN28QGstreamerAudioInputSelectorC1EP7QObject@Base 5.0.2
 _ZN28QGstreamerAudioInputSelectorC2EP7QObject@Base 5.0.2
 _ZN28QGstreamerAudioInputSelectorD0Ev@Base 5.0.2
 _ZN28QGstreamerAudioInputSelectorD1Ev@Base 5.0.2
 _ZN28QGstreamerAudioInputSelectorD2Ev@Base 5.0.2
 (arch=armhf)_ZN28QGstreamerMirTextureRenderer10setSurfaceEP21QAbstractVideoSurface@Base 5.1.1+git20130918+97081f9478-1ubuntu1phablet1
 (arch=armhf)_ZN28QGstreamerMirTextureRenderer11qt_metacallEN11QMetaObject4CallEiPPv@Base 5.1.1+git20130918+97081f9478-1ubuntu1phablet1
 (arch=armhf)_ZN28QGstreamerMirTextureRenderer11qt_metacastEPKc@Base 5.1.1+git20130918+97081f9478-1ubuntu1phablet1
 (arch=armhf)_ZN28QGstreamerMirTextureRenderer11renderFrameEv@Base 5.1.1+git20130918+97081f9478-1ubuntu1phablet1
 (arch=armhf)_ZN28QGstreamerMirTextureRenderer11sinkChangedEv@Base 5.1.1+git20130918+97081f9478-1ubuntu1phablet1
 (arch=armhf)_ZN28QGstreamerMirTextureRenderer12readyChangedEb@Base 5.1.1+git20130918+97081f9478-1ubuntu1phablet1
 (arch=armhf)_ZN28QGstreamerMirTextureRenderer12stopRendererEv@Base 5.1.1+git20130918+97081f9478-1ubuntu1phablet1
 (arch=armhf)_ZN28QGstreamerMirTextureRenderer14padBufferProbeEP7_GstPadP16_GstPadProbeInfoPv@Base 5.1.1+git20130918+97081f9478-1ubuntu1phablet1
 (arch=armhf)_ZN28QGstreamerMirTextureRenderer16handleFrameReadyEPPvS0_@Base 5.1.1+git20131205+8230c02-0ubuntu1
 (arch=armhf)_ZN28QGstreamerMirTextureRenderer16setPlayerSessionEPK23QGstreamerPlayerSession@Base 5.1.1+git20130918+97081f9478-1ubuntu1phablet1
 (arch=armhf)_ZN28QGstreamerMirTextureRenderer16staticMetaObjectE@Base 5.1.1+git20130918+97081f9478-1ubuntu1phablet1
 (arch=armhf)_ZN28QGstreamerMirTextureRenderer17nativeSizeChangedEv@Base 5.1.1+git20130918+97081f9478-1ubuntu1phablet1
 (arch=armhf)_ZN28QGstreamerMirTextureRenderer18handleFormatChangeEv@Base 5.1.1+git20130918+97081f9478-1ubuntu1phablet1
 (arch=armhf)_ZN28QGstreamerMirTextureRenderer21createOffscreenWindowERK14QSurfaceFormat@Base 5.1.1+git20130920+5b12abb862-0ubuntu1
 (arch=armhf)_ZN28QGstreamerMirTextureRenderer21updateNativeVideoSizeEv@Base 5.1.1+git20130918+97081f9478-1ubuntu1phablet1
 (arch=armhf)_ZN28QGstreamerMirTextureRenderer23setSurfaceTextureClientEPv@Base 5.1.1+git20131205+8230c02-0ubuntu1
 (arch=armhf)_ZN28QGstreamerMirTextureRenderer24handleFocusWindowChangedEP7QWindow@Base 5.1.1+git20130918+97081f9478-1ubuntu1phablet1
 (arch=armhf)_ZN28QGstreamerMirTextureRenderer29handleSetSurfaceTextureClientEPPvS0_S0_@Base 5.1.1+git20131205+8230c02-0ubuntu1
 (arch=armhf)_ZN28QGstreamerMirTextureRenderer9videoSinkEv@Base 5.1.1+git20130918+97081f9478-1ubuntu1phablet1
 (arch=armhf)_ZN28QGstreamerMirTextureRendererC1EP7QObjectPK23QGstreamerPlayerSession@Base 5.1.1+git20130918+97081f9478-1ubuntu1phablet1
 (arch=armhf)_ZN28QGstreamerMirTextureRendererC2EP7QObjectPK23QGstreamerPlayerSession@Base 5.1.1+git20130918+97081f9478-1ubuntu1phablet1
 (arch=armhf)_ZN28QGstreamerMirTextureRendererD0Ev@Base 5.1.1+git20130918+97081f9478-1ubuntu1phablet1
 (arch=armhf)_ZN28QGstreamerMirTextureRendererD1Ev@Base 5.1.1+git20130918+97081f9478-1ubuntu1phablet1
 (arch=armhf)_ZN28QGstreamerMirTextureRendererD2Ev@Base 5.1.1+git20130918+97081f9478-1ubuntu1phablet1
 _ZN32QGstreamerVideoRendererInterface12stopRendererEv@Base 5.0.2
 _ZN32QGstreamerVideoRendererInterfaceD0Ev@Base 5.0.2
 _ZN32QGstreamerVideoRendererInterfaceD1Ev@Base 5.0.2
 _ZN32QGstreamerVideoRendererInterfaceD2Ev@Base 5.0.2
 _ZN33QGstreamerVideoInputDeviceControl11qt_metacallEN11QMetaObject4CallEiPPv@Base 5.0.2
 _ZN33QGstreamerVideoInputDeviceControl11qt_metacastEPKc@Base 5.0.2
 _ZN33QGstreamerVideoInputDeviceControl16staticMetaObjectE@Base 5.0.2
 _ZN33QGstreamerVideoInputDeviceControl17setSelectedDeviceEi@Base 5.0.2
 _ZN33QGstreamerVideoInputDeviceControl6updateEv@Base 5.0.2
 _ZN33QGstreamerVideoInputDeviceControlC1EP7QObject@Base 5.0.2
 _ZN33QGstreamerVideoInputDeviceControlC2EP7QObject@Base 5.0.2
 _ZN33QGstreamerVideoInputDeviceControlD0Ev@Base 5.0.2
 _ZN33QGstreamerVideoInputDeviceControlD1Ev@Base 5.0.2
 _ZN33QGstreamerVideoInputDeviceControlD2Ev@Base 5.0.2
 (optional=templinst)_ZN4QMapI10QByteArray8QVariantE13detach_helperEv@Base 5.0.2
 _ZN4QMapI10QByteArray8QVariantE6insertERKS0_RKS1_@Base 5.0.2
 (optional=templinst)_ZN4QMapI7QStringS0_E13detach_helperEv@Base 5.0.2
 (optional=templinst)_ZN5QHashI10QByteArray15QHashDummyValueE11deleteNode2EPN9QHashData4NodeE@Base 5.0.2
 (optional=templinst)_ZN5QHashI10QByteArray15QHashDummyValueE13duplicateNodeEPN9QHashData4NodeEPv@Base 5.0.2
 (optional=templinst)_ZN5QListI7QStringE18detach_helper_growEii@Base 5.0.2
 (optional=templinst)_ZN5QListI7QStringE5clearEv@Base 5.0.2
 (optional=templinst)_ZN5QListI7QStringE6appendERKS0_@Base 5.0.2
 (optional=templinst)_ZN5QListI7QStringEC1ERKS1_@Base 5.0.2
 (optional=templinst)_ZN5QListI7QStringEC2ERKS1_@Base 5.0.2
 (optional=templinst)_ZN5QListI7QStringED1Ev@Base 5.0.2
 (optional=templinst)_ZN5QListI7QStringED2Ev@Base 5.0.2
 (optional=templinst)_ZN5QListI9QFileInfoED1Ev@Base 5.0.2
 (optional=templinst)_ZN5QListI9QFileInfoED2Ev@Base 5.0.2
 (optional=templinst)_ZN5QListIN11QVideoFrame11PixelFormatEE5clearEv@Base 5.0.2
 _ZN5QListIN11QVideoFrame11PixelFormatEE6appendERKS1_@Base 5.0.2
 (optional=templinst)_ZN5QListIN11QVideoFrame11PixelFormatEEC1ERKS2_@Base 5.0.2
 (optional=templinst)_ZN5QListIN11QVideoFrame11PixelFormatEEC2ERKS2_@Base 5.0.2
 (optional=templinst)_ZN5QListIN11QVideoFrame11PixelFormatEED1Ev@Base 5.0.2
 (optional=templinst)_ZN5QListIN11QVideoFrame11PixelFormatEED2Ev@Base 5.0.2
 (optional=templinst)_ZN5QListIP23QGstBufferPoolInterfaceE18detach_helper_growEii@Base 5.0.2
 (optional=templinst)_ZN5QListIP23QGstBufferPoolInterfaceED1Ev@Base 5.0.2
 (optional=templinst)_ZN5QListIP23QGstBufferPoolInterfaceED2Ev@Base 5.0.2
 _ZN5QListIP26QGstreamerBusMessageFilterE6appendERKS1_@Base 5.0.2
 (optional=templinst)_ZN5QListIP26QGstreamerBusMessageFilterE9removeAllERKS1_@Base 5.0.2
 (optional=templinst)_ZN5QListIP26QGstreamerBusMessageFilterED1Ev@Base 5.0.2
 (optional=templinst)_ZN5QListIP26QGstreamerBusMessageFilterED2Ev@Base 5.0.2
 _ZN5QListIP27QGstreamerSyncMessageFilterE6appendERKS1_@Base 5.0.2
 (optional=templinst)_ZN5QListIP27QGstreamerSyncMessageFilterE9removeAllERKS1_@Base 5.0.2
 (optional=templinst)_ZN5QListIP27QGstreamerSyncMessageFilterED1Ev@Base 5.0.2
 (optional=templinst)_ZN5QListIP27QGstreamerSyncMessageFilterED2Ev@Base 5.0.2
 (optional=templinst)_ZN5QListIP7QObjectED1Ev@Base 5.0.2
 (optional=templinst)_ZN5QListIP7QObjectED2Ev@Base 5.0.2
 (optional=templinst)_ZN8QMapNodeI10QByteArray8QVariantE14destroySubTreeEv@Base 5.0.2
 (optional=templinst)_ZN8QMapNodeI7QStringS0_E14destroySubTreeEv@Base 5.0.2
 _ZN9QGstUtils10hasSupportERK7QStringRK11QStringListRK4QSetIS0_E@Base 5.0.2
 _ZN9QGstUtils13initializeGstEv@Base 5.0.2
 _ZN9QGstUtils14capsResolutionEPK8_GstCaps@Base 5.0.2
 _ZN9QGstUtils15gstTagListToMapEPK11_GstTagList@Base 5.1.1+git20130918+97081f9478-1ubuntu1phablet1
#MISSING: 5.1.1+git20130918+97081f9478-1ubuntu1phablet1# _ZN9QGstUtils15gstTagListToMapEPK13_GstStructure@Base 5.0.2
 _ZN9QGstUtils18audioFormatForCapsEPK8_GstCaps@Base 5.0.2
 _ZN9QGstUtils18capsForAudioFormatE12QAudioFormat@Base 5.0.2
#MISSING: 5.1.1+git20130918+97081f9478-1ubuntu1phablet1# _ZN9QGstUtils20audioFormatForBufferEP10_GstBuffer@Base 5.0.2
 _ZN9QGstUtils20audioFormatForSampleEP10_GstSample@Base 5.1.1+git20130918+97081f9478-1ubuntu1phablet1
 _ZN9QGstUtils23capsCorrectedResolutionEPK8_GstCaps@Base 5.0.2
 _ZNK10QGstAppSrc10metaObjectEv@Base 5.0.2
 _ZNK10QGstAppSrc6streamEv@Base 5.0.2
 _ZNK14QGstCodecsInfo15supportedCodecsEv@Base 5.0.2
 _ZNK14QGstCodecsInfo16codecDescriptionERK7QString@Base 5.0.2
 _ZNK15QGstVideoBuffer6handleEv@Base 5.0.2
 _ZNK15QGstVideoBuffer7mapModeEv@Base 5.0.2
 _ZNK17QGstreamerMessage10rawMessageEv@Base 5.0.2
 _ZNK19QGstreamerBusHelper10metaObjectEv@Base 5.0.2
 _ZNK20QGstBufferPoolPlugin10metaObjectEv@Base 5.0.2
 _ZNK23QGstreamerVideoRenderer10metaObjectEv@Base 5.0.2
 _ZNK23QGstreamerVideoRenderer7isReadyEv@Base 5.0.2
 _ZNK23QGstreamerVideoRenderer7surfaceEv@Base 5.0.2
 _ZNK24QVideoSurfaceGstDelegate10metaObjectEv@Base 5.0.2
 _ZNK24QVideoSurfaceGstDelegate13surfaceFormatEv@Base 5.0.2
 _ZNK24QVideoSurfaceGstDelegate21supportedPixelFormatsEN20QAbstractVideoBuffer10HandleTypeE@Base 5.0.2
 _ZNK26QGstreamerBusHelperPrivate10metaObjectEv@Base 5.0.2
 (arch=armhf)_ZNK26QGstreamerMirTextureBuffer6handleEv@Base 5.1.1+git20130918+97081f9478-1ubuntu1phablet1
 (arch=armhf)_ZNK26QGstreamerMirTextureBuffer7mapModeEv@Base 5.1.1+git20130918+97081f9478-1ubuntu1phablet1
 _ZNK27QGstreamerAudioProbeControl10metaObjectEv@Base 5.0.2
 _ZNK27QGstreamerVideoProbeControl10metaObjectEv@Base 5.0.2
 _ZNK28QGstreamerAudioInputSelector10metaObjectEv@Base 5.0.2
 _ZNK28QGstreamerAudioInputSelector11activeInputEv@Base 5.0.2
 _ZNK28QGstreamerAudioInputSelector12defaultInputEv@Base 5.0.2
 _ZNK28QGstreamerAudioInputSelector15availableInputsEv@Base 5.0.2
 _ZNK28QGstreamerAudioInputSelector16inputDescriptionERK7QString@Base 5.0.2
 (arch=armhf)_ZNK28QGstreamerMirTextureRenderer10metaObjectEv@Base 5.1.1+git20130918+97081f9478-1ubuntu1phablet1
 (arch=armhf)_ZNK28QGstreamerMirTextureRenderer7isReadyEv@Base 5.1.1+git20130918+97081f9478-1ubuntu1phablet1
 (arch=armhf)_ZNK28QGstreamerMirTextureRenderer7surfaceEv@Base 5.1.1+git20130918+97081f9478-1ubuntu1phablet1
 _ZNK32QGstreamerVideoRendererInterface7isReadyEv@Base 5.0.2
 _ZNK33QGstreamerVideoInputDeviceControl10deviceNameEi@Base 5.0.2
 _ZNK33QGstreamerVideoInputDeviceControl10metaObjectEv@Base 5.0.2
 _ZNK33QGstreamerVideoInputDeviceControl11deviceCountEv@Base 5.0.2
 _ZNK33QGstreamerVideoInputDeviceControl13defaultDeviceEv@Base 5.0.2
 _ZNK33QGstreamerVideoInputDeviceControl14selectedDeviceEv@Base 5.0.2
 _ZNK33QGstreamerVideoInputDeviceControl17deviceDescriptionEi@Base 5.0.2
 (optional=templinst)_ZNK5QHashI10QByteArray15QHashDummyValueE8findNodeERKS0_Pj@Base 5.0.2
 (optional=templinst)_ZNK5QHashI7QString15QHashDummyValueE8findNodeERKS0_Pj@Base 5.0.2
 (optional=templinst)_ZNK8QMapNodeI10QByteArray8QVariantE4copyEP8QMapDataIS0_S1_E@Base 5.0.2
 (optional=templinst)_ZNK8QMapNodeI7QStringS0_E4copyEP8QMapDataIS0_S0_E@Base 5.0.2
 _ZTI10QGstAppSrc@Base 5.0.2
 _ZTI15QGstVideoBuffer@Base 5.0.2
 _ZTI19QGstreamerBusHelper@Base 5.0.2
 _ZTI20QGstBufferPoolPlugin@Base 5.0.2
 _ZTI23QGstBufferPoolInterface@Base 5.0.2
 _ZTI23QGstreamerVideoRenderer@Base 5.0.2
 _ZTI24QVideoSurfaceGstDelegate@Base 5.0.2
 _ZTI26QGstreamerBusHelperPrivate@Base 5.0.2
 (arch=armhf)_ZTI26QGstreamerMirTextureBuffer@Base 5.1.1+git20130918+97081f9478-1ubuntu1phablet1
 _ZTI27QGstreamerAudioProbeControl@Base 5.0.2
 _ZTI27QGstreamerVideoProbeControl@Base 5.0.2
 _ZTI28QGstreamerAudioInputSelector@Base 5.0.2
 (arch=armhf)_ZTI28QGstreamerMirTextureRenderer@Base 5.1.1+git20130918+97081f9478-1ubuntu1phablet1
 _ZTI32QGstreamerVideoRendererInterface@Base 5.0.2
 _ZTI33QGstreamerVideoInputDeviceControl@Base 5.0.2
 _ZTS10QGstAppSrc@Base 5.0.2
 _ZTS15QGstVideoBuffer@Base 5.0.2
 _ZTS19QGstreamerBusHelper@Base 5.0.2
 _ZTS20QGstBufferPoolPlugin@Base 5.0.2
 _ZTS23QGstBufferPoolInterface@Base 5.0.2
 _ZTS23QGstreamerVideoRenderer@Base 5.0.2
 _ZTS24QVideoSurfaceGstDelegate@Base 5.0.2
 _ZTS26QGstreamerBusHelperPrivate@Base 5.0.2
 (arch=armhf)_ZTS26QGstreamerMirTextureBuffer@Base 5.1.1+git20130918+97081f9478-1ubuntu1phablet1
 _ZTS27QGstreamerAudioProbeControl@Base 5.0.2
 _ZTS27QGstreamerVideoProbeControl@Base 5.0.2
 _ZTS28QGstreamerAudioInputSelector@Base 5.0.2
 (arch=armhf)_ZTS28QGstreamerMirTextureRenderer@Base 5.1.1+git20130918+97081f9478-1ubuntu1phablet1
 _ZTS32QGstreamerVideoRendererInterface@Base 5.0.2
 _ZTS33QGstreamerVideoInputDeviceControl@Base 5.0.2
 _ZTV10QGstAppSrc@Base 5.0.2
 _ZTV15QGstVideoBuffer@Base 5.0.2
 _ZTV19QGstreamerBusHelper@Base 5.0.2
 _ZTV20QGstBufferPoolPlugin@Base 5.0.2
 _ZTV23QGstBufferPoolInterface@Base 5.0.2
 _ZTV23QGstreamerVideoRenderer@Base 5.0.2
 _ZTV24QVideoSurfaceGstDelegate@Base 5.0.2
 _ZTV26QGstreamerBusHelperPrivate@Base 5.0.2
 (arch=armhf)_ZTV26QGstreamerMirTextureBuffer@Base 5.1.1+git20130918+97081f9478-1ubuntu1phablet1
 _ZTV27QGstreamerAudioProbeControl@Base 5.0.2
 _ZTV27QGstreamerVideoProbeControl@Base 5.0.2
 _ZTV28QGstreamerAudioInputSelector@Base 5.0.2
 (arch=armhf)_ZTV28QGstreamerMirTextureRenderer@Base 5.1.1+git20130918+97081f9478-1ubuntu1phablet1
 _ZTV32QGstreamerVideoRendererInterface@Base 5.0.2
 _ZTV33QGstreamerVideoInputDeviceControl@Base 5.0.2
 (optional=templinst)_ZZN11QMetaTypeIdI17QGstreamerMessageE14qt_metatype_idEvE11metatype_id@Base 5.0.2
 gst_video_connector_get_type@Base 5.0.2
 (c++)"non-virtual thunk to QGstBufferPoolPlugin::~QGstBufferPoolPlugin()@Base" 5.0.2
 (c++|arch=armhf)"non-virtual thunk to QGstreamerMirTextureRenderer::isReady() const@Base" 5.1.1+git20130918+97081f9478-1ubuntu1phablet1
 (c++|arch=armhf)"non-virtual thunk to QGstreamerMirTextureRenderer::stopRenderer()@Base" 5.1.1+git20130918+97081f9478-1ubuntu1phablet1
 (c++|arch=armhf)"non-virtual thunk to QGstreamerMirTextureRenderer::videoSink()@Base" 5.1.1+git20130918+97081f9478-1ubuntu1phablet1
 (c++|arch=armhf)"non-virtual thunk to QGstreamerMirTextureRenderer::~QGstreamerMirTextureRenderer()@Base" 5.1.1+git20130918+97081f9478-1ubuntu1phablet1
 (c++)"non-virtual thunk to QGstreamerVideoRenderer::isReady() const@Base" 5.0.2
 (c++)"non-virtual thunk to QGstreamerVideoRenderer::stopRenderer()@Base" 5.0.2
 (c++)"non-virtual thunk to QGstreamerVideoRenderer::videoSink()@Base" 5.0.2
 (c++)"non-virtual thunk to QGstreamerVideoRenderer::~QGstreamerVideoRenderer()@Base" 5.0.2
